target datalayout = "e-m:e-p270:32:32-p271:32:32-p272:64:64-i64:64-i128:128-f80:128-n8:16:32:64-S128"
target triple = "x86_64-pc-linux-gnu"

%struct.lv_subject_t = type { %struct.lv_ll_t, %union.lv_subject_value_t, %union.lv_subject_value_t, ptr, i32 }
%struct.lv_ll_t = type { i32, ptr, ptr }
%union.lv_subject_value_t = type { ptr }
%struct.lv_color_t = type { i8, i8, i8 }

; Function Attrs: nounwind uwtable
define i24 @lv_subject_get_color(ptr noundef %0) #0 {
  %2 = alloca %struct.lv_color_t, align 1
  %3 = alloca ptr, align 8
  %4 = alloca i24, align 4
  store ptr %0, ptr %3, align 8, !tbaa !3
  %5 = load ptr, ptr %3, align 8, !tbaa !3
  %6 = getelementptr inbounds nuw %struct.lv_subject_t, ptr %5, i32 0, i32 4
  %7 = load i32, ptr %6, align 8
  %8 = and i32 %7, 15
  %9 = icmp ne i32 %8, 4
  br i1 %9, label %10, label %14

10:                                               ; preds = %1
  br label %11

11:                                               ; preds = %10
  br label %12

12:                                               ; preds = %11
  %13 = call i24 @lv_color_black()
  store i24 %13, ptr %2, align 1
  br label %17

14:                                               ; preds = %1
  %15 = load ptr, ptr %3, align 8, !tbaa !3
  %16 = getelementptr inbounds nuw %struct.lv_subject_t, ptr %15, i32 0, i32 1
  call void @llvm.memcpy.p0.p0.i64(ptr align 1 %2, ptr align 8 %16, i64 3, i1 false), !tbaa.struct !14
  br label %17

17:                                               ; preds = %14, %12
  call void @llvm.memcpy.p0.p0.i64(ptr align 4 %4, ptr align 1 %2, i64 3, i1 false)
  %18 = load i24, ptr %4, align 4
  ret i24 %18
}