; Function Attrs: nounwind uwtable
define i24 @lv_subject_get_color(ptr noundef readonly captures(none) %0) local_unnamed_addr #0 {
  %2 = getelementptr inbounds nuw i8, ptr %0, i64 48
  %3 = load i32, ptr %2, align 8
  %4 = and i32 %3, 15
  %.not = icmp eq i32 %4, 4
  br i1 %.not, label %7, label %5

5:                                                ; preds = %1
  %6 = tail call i24 @lv_color_black() #9
  br label %9

7:                                                ; preds = %1
  %8 = getelementptr inbounds nuw i8, ptr %0, i64 24
  %.sroa.0.0.copyload = load i24, ptr %8, align 8
  br label %9

9:                                                ; preds = %7, %5
  %.sroa.0.0 = phi i24 [ %6, %5 ], [ %.sroa.0.0.copyload, %7 ]
  ret i24 %.sroa.0.0
}